(dp0
(S'0000001000'
p1
I2
tp2
F12.39149662315008
s(S'1000000000'
p3
I1
tp4
F3.2537336920525175
s(S'0000000100'
p5
I0
tp6
F15.416772419228323
s(S'0000000010'
p7
I1
tp8
F3.15858513313979
s(S'0100000000'
p9
I0
tp10
F17.10373681107527
s(S'0000100000'
p11
I0
tp12
F24.03971556619464
s(S'0000000001'
p13
I1
tp14
F2.210949350092024
s(S'0000000000'
p15
I1
tp16
F-32.08359433376045
s(S'0001000000'
p17
I0
tp18
F19.94755800055903
s(S'0000000000'
p19
I0
tp20
F-28.87264837209651
s(S'0000010000'
p21
I2
tp22
F14.323676693150313
s(S'0010000000'
p23
I1
tp24
F10.900217843442553
s(S'0000000000'
p25
I2
tp26
F-26.346106964397958
s.